; Function Attrs: nounwind uwtable
define void @Hop_ManDfs_rec(ptr noundef %0, ptr noundef %1) local_unnamed_addr #0 {
  %3 = getelementptr i8, ptr %0, i64 32
  %.val = load i32, ptr %3, align 8
  %4 = and i32 %.val, 22
  %or.cond = icmp eq i32 %4, 4
  br i1 %or.cond, label %5, label %47

5:                                                ; preds = %2
  %6 = getelementptr i8, ptr %0, i64 16
  %.val11 = load ptr, ptr %6, align 8, !tbaa !3
  %7 = ptrtoint ptr %.val11 to i64
  %8 = and i64 %7, -2
  %9 = inttoptr i64 %8 to ptr
  tail call void @Hop_ManDfs_rec(ptr noundef %9, ptr noundef %1)
  %10 = getelementptr i8, ptr %0, i64 24
  %.val12 = load ptr, ptr %10, align 8, !tbaa !10
  %11 = ptrtoint ptr %.val12 to i64
  %12 = and i64 %11, -2
  %13 = inttoptr i64 %12 to ptr
  tail call void @Hop_ManDfs_rec(ptr noundef %13, ptr noundef %1)
  %14 = load i32, ptr %3, align 8
  %15 = or i32 %14, 16
  store i32 %15, ptr %3, align 8
  %16 = getelementptr inbounds nuw i8, ptr %1, i64 4
  %17 = load i32, ptr %16, align 4, !tbaa !11
  %18 = load i32, ptr %1, align 8, !tbaa !13
  %19 = icmp eq i32 %17, %18
  br i1 %19, label %20, label %.Vec_PtrGrow.exit11_crit_edge.i

.Vec_PtrGrow.exit11_crit_edge.i:                  ; preds = %5
  %.phi.trans.insert.i = getelementptr inbounds nuw i8, ptr %1, i64 8
  %.pre.i = load ptr, ptr %.phi.trans.insert.i, align 8, !tbaa !14
  br label %Vec_PtrPush.exit

20:                                               ; preds = %5
  %21 = icmp slt i32 %17, 16
  br i1 %21, label %22, label %30

22:                                               ; preds = %20
  %23 = getelementptr inbounds nuw i8, ptr %1, i64 8
  %24 = load ptr, ptr %23, align 8, !tbaa !14
  %.not9.i.i = icmp eq ptr %24, null
  br i1 %.not9.i.i, label %27, label %25

25:                                               ; preds = %22
  %26 = tail call dereferenceable_or_null(128) ptr @realloc(ptr noundef nonnull %24, i64 noundef 128) #9
  br label %Vec_PtrGrow.exit.i

27:                                               ; preds = %22
  %28 = tail call noalias dereferenceable_or_null(128) ptr @malloc(i64 noundef 128) #10
  br label %Vec_PtrGrow.exit.i

Vec_PtrGrow.exit.i:                               ; preds = %27, %25
  %29 = phi ptr [ %26, %25 ], [ %28, %27 ]
  store ptr %29, ptr %23, align 8, !tbaa !14
  store i32 16, ptr %1, align 8, !tbaa !13
  br label %Vec_PtrPush.exit

30:                                               ; preds = %20
  %31 = shl nuw nsw i32 %17, 1
  %32 = getelementptr inbounds nuw i8, ptr %1, i64 8
  %33 = load ptr, ptr %32, align 8, !tbaa !14
  %.not9.i10.i = icmp eq ptr %33, null
  %34 = zext nneg i32 %31 to i64
  %35 = shl nuw nsw i64 %34, 3
  br i1 %.not9.i10.i, label %38, label %36

36:                                               ; preds = %30
  %37 = tail call ptr @realloc(ptr noundef nonnull %33, i64 noundef %35) #9
  br label %40

38:                                               ; preds = %30
  %39 = tail call noalias ptr @malloc(i64 noundef %35) #10
  br label %40

40:                                               ; preds = %38, %36
  %41 = phi ptr [ %37, %36 ], [ %39, %38 ]
  store ptr %41, ptr %32, align 8, !tbaa !14
  store i32 %31, ptr %1, align 8, !tbaa !13
  br label %Vec_PtrPush.exit

Vec_PtrPush.exit:                                 ; preds = %.Vec_PtrGrow.exit11_crit_edge.i, %Vec_PtrGrow.exit.i, %40
  %42 = phi ptr [ %.pre.i, %.Vec_PtrGrow.exit11_crit_edge.i ], [ %41, %40 ], [ %29, %Vec_PtrGrow.exit.i ]
  %43 = load i32, ptr %16, align 4, !tbaa !11
  %44 = add nsw i32 %43, 1
  store i32 %44, ptr %16, align 4, !tbaa !11
  %45 = sext i32 %43 to i64
  %46 = getelementptr inbounds ptr, ptr %42, i64 %45
  store ptr %0, ptr %46, align 8, !tbaa !15
  br label %47

47:                                               ; preds = %2, %Vec_PtrPush.exit
  ret void
}